(dp0
I0
(dp1
S'xmlFile'
p2
S'http://192.168.1.1:2555/upnp/5d9fc428-8018-3a60-ac23-bd2c9c8bb99b/desc.xml'
p3
sS'name'
p4
S'192.168.1.1:2555'
p5
sS'proto'
p6
S'http://'
p7
sS'deviceList'
p8
(dp9
sS'serverType'
p10
NsS'upnpServer'
p11
S'Wireless Broadband Router/4.7.5.3.32 UPnP/1.0'
p12
sS'dataComplete'
p13
I00
ss.